; Function Attrs: mustprogress uwtable
define dso_local void @_ZN4Draw15DrawSolidCircleE11b2Transform6b2Vec2f10b2HexColor(ptr noundef nonnull readonly align 8 captures(none) dereferenceable(216) %0, <2 x float> %1, <2 x float> %2, <2 x float> %3, float noundef %4, i32 noundef %5) local_unnamed_addr #5 align 2 {
  %7 = alloca %struct.b2Transform, align 8
  %8 = getelementptr inbounds nuw i8, ptr %7, i64 8
  store <2 x float> %2, ptr %8, align 8
  %.sroa.3.8.vec.extract.i = extractelement <2 x float> %2, i64 0
  %.sroa.0.0.vec.extract.i = extractelement <2 x float> %3, i64 0
  %9 = fmul <2 x float> %2, %3
  %10 = extractelement <2 x float> %9, i64 0
  %.sroa.3.12.vec.extract.i = extractelement <2 x float> %2, i64 1
  %.sroa.0.4.vec.extract.i = extractelement <2 x float> %3, i64 1
  %11 = fmul float %.sroa.3.12.vec.extract.i, %.sroa.0.4.vec.extract.i
  %12 = fsub float %10, %11
  %.sroa.06.0.vec.extract.i = extractelement <2 x float> %1, i64 0
  %13 = fadd float %.sroa.06.0.vec.extract.i, %12
  %14 = fmul float %.sroa.3.12.vec.extract.i, %.sroa.0.0.vec.extract.i
  %15 = fmul float %.sroa.3.8.vec.extract.i, %.sroa.0.4.vec.extract.i
  %16 = fadd float %14, %15
  %.sroa.06.4.vec.extract.i = extractelement <2 x float> %1, i64 1
  %17 = fadd float %.sroa.06.4.vec.extract.i, %16
  %.sroa.011.0.vec.insert.i = insertelement <2 x float> poison, float %13, i64 0
  %.sroa.011.4.vec.insert.i = insertelement <2 x float> %.sroa.011.0.vec.insert.i, float %17, i64 1
  store <2 x float> %.sroa.011.4.vec.insert.i, ptr %7, align 8
  %18 = getelementptr inbounds nuw i8, ptr %0, i64 48
  %19 = load ptr, ptr %18, align 8, !tbaa !35
  call void @_ZN14GLSolidCircles9AddCircleERK11b2Transformf10b2HexColor(ptr noundef nonnull align 8 dereferenceable(48) %19, ptr noundef nonnull align 4 dereferenceable(16) %7, float noundef %4, i32 noundef %5)
  ret void
}